; ModuleID = '2/217.c'
source_filename = "2/217.c"
target datalayout = "e-m:e-p270:32:32-p271:32:32-p272:64:64-i64:64-f80:128-n8:16:32:64-S128"
target triple = "x86_64-pc-linux-gnu"

%struct.book = type { i32, [26 x i8] }

@.str = private unnamed_addr constant [3 x i8] c"%d\00", align 1
@.str.1 = private unnamed_addr constant [6 x i8] c"%d %s\00", align 1
@.str.2 = private unnamed_addr constant [4 x i8] c"%c\0A\00", align 1
@.str.3 = private unnamed_addr constant [4 x i8] c"%d\0A\00", align 1

; Function Attrs: noinline nounwind uwtable
define dso_local void @main() #0 {
  %1 = alloca %struct.book*, align 8
  %2 = alloca i32, align 4
  %3 = alloca i32, align 4
  %4 = alloca i32, align 4
  %5 = alloca [100 x i32], align 16
  %6 = alloca i32, align 4
  %7 = alloca i8, align 1
  %8 = load i32, i32* %2, align 4
  %9 = sext i32 %8 to i64
  %10 = mul i64 %9, 32
  %11 = call noalias i8* @malloc(i64 %10) #3
  %12 = bitcast i8* %11 to %struct.book*
  store %struct.book* %12, %struct.book** %1, align 8
  store i32 0, i32* %3, align 4
  br label %13

13:                                               ; preds = %20, %0
  %14 = load i32, i32* %3, align 4
  %15 = icmp slt i32 %14, 100
  br i1 %15, label %16, label %23

16:                                               ; preds = %13
  %17 = load i32, i32* %3, align 4
  %18 = sext i32 %17 to i64
  %19 = getelementptr inbounds [100 x i32], [100 x i32]* %5, i64 0, i64 %18
  store i32 0, i32* %19, align 4
  br label %20

20:                                               ; preds = %16
  %21 = load i32, i32* %3, align 4
  %22 = add nsw i32 %21, 1
  store i32 %22, i32* %3, align 4
  br label %13

23:                                               ; preds = %13
  %24 = call i32 (i8*, ...) @__isoc99_scanf(i8* getelementptr inbounds ([3 x i8], [3 x i8]* @.str, i64 0, i64 0), i32* %2)
  store i32 0, i32* %3, align 4
  br label %25

25:                                               ; preds = %42, %23
  %26 = load i32, i32* %3, align 4
  %27 = load i32, i32* %2, align 4
  %28 = icmp slt i32 %26, %27
  br i1 %28, label %29, label %45

29:                                               ; preds = %25
  %30 = load %struct.book*, %struct.book** %1, align 8
  %31 = load i32, i32* %3, align 4
  %32 = sext i32 %31 to i64
  %33 = getelementptr inbounds %struct.book, %struct.book* %30, i64 %32
  %34 = getelementptr inbounds %struct.book, %struct.book* %33, i32 0, i32 0
  %35 = load %struct.book*, %struct.book** %1, align 8
  %36 = load i32, i32* %3, align 4
  %37 = sext i32 %36 to i64
  %38 = getelementptr inbounds %struct.book, %struct.book* %35, i64 %37
  %39 = getelementptr inbounds %struct.book, %struct.book* %38, i32 0, i32 1
  %40 = getelementptr inbounds [26 x i8], [26 x i8]* %39, i64 0, i64 0
  %41 = call i32 (i8*, ...) @__isoc99_scanf(i8* getelementptr inbounds ([6 x i8], [6 x i8]* @.str.1, i64 0, i64 0), i32* %34, i8* %40)
  br label %42

42:                                               ; preds = %29
  %43 = load i32, i32* %3, align 4
  %44 = add nsw i32 %43, 1
  store i32 %44, i32* %3, align 4
  br label %25

45:                                               ; preds = %25
  store i32 0, i32* %3, align 4
  br label %46

46:                                               ; preds = %105, %45
  %47 = load i32, i32* %3, align 4
  %48 = load i32, i32* %2, align 4
  %49 = icmp slt i32 %47, %48
  br i1 %49, label %50, label %108

50:                                               ; preds = %46
  store i32 0, i32* %4, align 4
  br label %51

51:                                               ; preds = %101, %50
  %52 = load %struct.book*, %struct.book** %1, align 8
  %53 = load i32, i32* %3, align 4
  %54 = sext i32 %53 to i64
  %55 = getelementptr inbounds %struct.book, %struct.book* %52, i64 %54
  %56 = getelementptr inbounds %struct.book, %struct.book* %55, i32 0, i32 1
  %57 = load i32, i32* %4, align 4
  %58 = sext i32 %57 to i64
  %59 = getelementptr inbounds [26 x i8], [26 x i8]* %56, i64 0, i64 %58
  %60 = load i8, i8* %59, align 1
  %61 = sext i8 %60 to i32
  %62 = icmp ne i32 %61, 0
  br i1 %62, label %63, label %104

63:                                               ; preds = %51
  store i8 65, i8* %7, align 1
  br label %64

64:                                               ; preds = %97, %63
  %65 = load i8, i8* %7, align 1
  %66 = sext i8 %65 to i32
  %67 = icmp sle i32 %66, 90
  br i1 %67, label %68, label %100

68:                                               ; preds = %64
  %69 = load %struct.book*, %struct.book** %1, align 8
  %70 = load i32, i32* %3, align 4
  %71 = sext i32 %70 to i64
  %72 = getelementptr inbounds %struct.book, %struct.book* %69, i64 %71
  %73 = getelementptr inbounds %struct.book, %struct.book* %72, i32 0, i32 1
  %74 = load i32, i32* %4, align 4
  %75 = sext i32 %74 to i64
  %76 = getelementptr inbounds [26 x i8], [26 x i8]* %73, i64 0, i64 %75
  %77 = load i8, i8* %76, align 1
  %78 = sext i8 %77 to i32
  %79 = load i8, i8* %7, align 1
  %80 = sext i8 %79 to i32
  %81 = icmp eq i32 %78, %80
  br i1 %81, label %82, label %96

82:                                               ; preds = %68
  %83 = load %struct.book*, %struct.book** %1, align 8
  %84 = load i32, i32* %3, align 4
  %85 = sext i32 %84 to i64
  %86 = getelementptr inbounds %struct.book, %struct.book* %83, i64 %85
  %87 = getelementptr inbounds %struct.book, %struct.book* %86, i32 0, i32 1
  %88 = load i32, i32* %4, align 4
  %89 = sext i32 %88 to i64
  %90 = getelementptr inbounds [26 x i8], [26 x i8]* %87, i64 0, i64 %89
  %91 = load i8, i8* %90, align 1
  %92 = sext i8 %91 to i64
  %93 = getelementptr inbounds [100 x i32], [100 x i32]* %5, i64 0, i64 %92
  %94 = load i32, i32* %93, align 4
  %95 = add nsw i32 %94, 1
  store i32 %95, i32* %93, align 4
  br label %96

96:                                               ; preds = %82, %68
  br label %97

97:                                               ; preds = %96
  %98 = load i8, i8* %7, align 1
  %99 = add i8 %98, 1
  store i8 %99, i8* %7, align 1
  br label %64

100:                                              ; preds = %64
  br label %101

101:                                              ; preds = %100
  %102 = load i32, i32* %4, align 4
  %103 = add nsw i32 %102, 1
  store i32 %103, i32* %4, align 4
  br label %51

104:                                              ; preds = %51
  br label %105

105:                                              ; preds = %104
  %106 = load i32, i32* %3, align 4
  %107 = add nsw i32 %106, 1
  store i32 %107, i32* %3, align 4
  br label %46

108:                                              ; preds = %46
  store i32 0, i32* %3, align 4
  br label %109

109:                                              ; preds = %128, %108
  %110 = load i32, i32* %3, align 4
  %111 = icmp slt i32 %110, 100
  br i1 %111, label %112, label %131

112:                                              ; preds = %109
  %113 = getelementptr inbounds [100 x i32], [100 x i32]* %5, i64 0, i64 0
  %114 = load i32, i32* %113, align 16
  %115 = load i32, i32* %3, align 4
  %116 = sext i32 %115 to i64
  %117 = getelementptr inbounds [100 x i32], [100 x i32]* %5, i64 0, i64 %116
  %118 = load i32, i32* %117, align 4
  %119 = icmp slt i32 %114, %118
  br i1 %119, label %120, label %127

120:                                              ; preds = %112
  %121 = load i32, i32* %3, align 4
  %122 = sext i32 %121 to i64
  %123 = getelementptr inbounds [100 x i32], [100 x i32]* %5, i64 0, i64 %122
  %124 = load i32, i32* %123, align 4
  %125 = getelementptr inbounds [100 x i32], [100 x i32]* %5, i64 0, i64 0
  store i32 %124, i32* %125, align 16
  %126 = load i32, i32* %3, align 4
  store i32 %126, i32* %6, align 4
  br label %127

127:                                              ; preds = %120, %112
  br label %128

128:                                              ; preds = %127
  %129 = load i32, i32* %3, align 4
  %130 = add nsw i32 %129, 1
  store i32 %130, i32* %3, align 4
  br label %109

131:                                              ; preds = %109
  %132 = load i32, i32* %6, align 4
  %133 = call i32 (i8*, ...) @printf(i8* getelementptr inbounds ([4 x i8], [4 x i8]* @.str.2, i64 0, i64 0), i32 %132)
  %134 = load i32, i32* %6, align 4
  %135 = sext i32 %134 to i64
  %136 = getelementptr inbounds [100 x i32], [100 x i32]* %5, i64 0, i64 %135
  %137 = load i32, i32* %136, align 4
  %138 = call i32 (i8*, ...) @printf(i8* getelementptr inbounds ([4 x i8], [4 x i8]* @.str.3, i64 0, i64 0), i32 %137)
  store i32 0, i32* %3, align 4
  br label %139

139:                                              ; preds = %182, %131
  %140 = load i32, i32* %3, align 4
  %141 = load i32, i32* %2, align 4
  %142 = icmp slt i32 %140, %141
  br i1 %142, label %143, label %185

143:                                              ; preds = %139
  store i32 0, i32* %4, align 4
  br label %144

144:                                              ; preds = %178, %143
  %145 = load %struct.book*, %struct.book** %1, align 8
  %146 = load i32, i32* %3, align 4
  %147 = sext i32 %146 to i64
  %148 = getelementptr inbounds %struct.book, %struct.book* %145, i64 %147
  %149 = getelementptr inbounds %struct.book, %struct.book* %148, i32 0, i32 1
  %150 = load i32, i32* %4, align 4
  %151 = sext i32 %150 to i64
  %152 = getelementptr inbounds [26 x i8], [26 x i8]* %149, i64 0, i64 %151
  %153 = load i8, i8* %152, align 1
  %154 = sext i8 %153 to i32
  %155 = icmp ne i32 %154, 0
  br i1 %155, label %156, label %181

156:                                              ; preds = %144
  %157 = load %struct.book*, %struct.book** %1, align 8
  %158 = load i32, i32* %3, align 4
  %159 = sext i32 %158 to i64
  %160 = getelementptr inbounds %struct.book, %struct.book* %157, i64 %159
  %161 = getelementptr inbounds %struct.book, %struct.book* %160, i32 0, i32 1
  %162 = load i32, i32* %4, align 4
  %163 = sext i32 %162 to i64
  %164 = getelementptr inbounds [26 x i8], [26 x i8]* %161, i64 0, i64 %163
  %165 = load i8, i8* %164, align 1
  %166 = sext i8 %165 to i32
  %167 = load i32, i32* %6, align 4
  %168 = icmp eq i32 %166, %167
  br i1 %168, label %169, label %177

169:                                              ; preds = %156
  %170 = load %struct.book*, %struct.book** %1, align 8
  %171 = load i32, i32* %3, align 4
  %172 = sext i32 %171 to i64
  %173 = getelementptr inbounds %struct.book, %struct.book* %170, i64 %172
  %174 = getelementptr inbounds %struct.book, %struct.book* %173, i32 0, i32 0
  %175 = load i32, i32* %174, align 4
  %176 = call i32 (i8*, ...) @printf(i8* getelementptr inbounds ([4 x i8], [4 x i8]* @.str.3, i64 0, i64 0), i32 %175)
  br label %177

177:                                              ; preds = %169, %156
  br label %178

178:                                              ; preds = %177
  %179 = load i32, i32* %4, align 4
  %180 = add nsw i32 %179, 1
  store i32 %180, i32* %4, align 4
  br label %144

181:                                              ; preds = %144
  br label %182

182:                                              ; preds = %181
  %183 = load i32, i32* %3, align 4
  %184 = add nsw i32 %183, 1
  store i32 %184, i32* %3, align 4
  br label %139

185:                                              ; preds = %139
  ret void
}

; Function Attrs: nounwind
declare dso_local noalias i8* @malloc(i64) #1

declare dso_local i32 @__isoc99_scanf(i8*, ...) #2

declare dso_local i32 @printf(i8*, ...) #2


!llvm.module.flags = !{!0}
!llvm.ident = !{!1}

!0 = !{i32 1, !"wchar_size", i32 4}
!1 = !{!"clang version 10.0.0-4ubuntu1 "}
